target datalayout = "e-m:e-p270:32:32-p271:32:32-p272:64:64-i64:64-i128:128-f80:128-n8:16:32:64-S128"
target triple = "x86_64-pc-linux-gnu"

%struct.t_pbc = type { i32, i32, i32, i32, [3 x [3 x float]], [3 x float], [3 x float], [3 x float], float, i32, [12 x [3 x i32]], [12 x [3 x float]] }

@.str.10 = private unnamed_addr constant [16 x i8] c"pbcTypeDX = %d\0A\00", align 1
@.str.11 = private unnamed_addr constant [4 x i8] c"box\00", align 1
@.str.12 = private unnamed_addr constant [10 x i8] c"fbox_diag\00", align 1
@.str.13 = private unnamed_addr constant [10 x i8] c"hbox_diag\00", align 1
@.str.14 = private unnamed_addr constant [11 x i8] c"mhbox_diag\00", align 1
@.str.15 = private unnamed_addr constant [21 x i8] c"sum of the above two\00", align 1
@.str.16 = private unnamed_addr constant [18 x i8] c"max_cutoff2 = %g\0A\00", align 1
@.str.17 = private unnamed_addr constant [16 x i8] c"ntric_vec = %d\0A\00", align 1
@.str.18 = private unnamed_addr constant [11 x i8] c"tric_shift\00", align 1
@.str.19 = private unnamed_addr constant [9 x i8] c"tric_vec\00", align 1

; Function Attrs: inlinehint mustprogress nounwind uwtable
define internal void @_ZL8rvec_addPKfS0_Pf(ptr noundef %0, ptr noundef %1, ptr noundef %2) #4 {
  %4 = alloca ptr, align 8
  %5 = alloca ptr, align 8
  %6 = alloca ptr, align 8
  %7 = alloca float, align 4
  %8 = alloca float, align 4
  %9 = alloca float, align 4
  store ptr %0, ptr %4, align 8, !tbaa !48
  store ptr %1, ptr %5, align 8, !tbaa !48
  store ptr %2, ptr %6, align 8, !tbaa !48
  call void @llvm.lifetime.start.p0(i64 4, ptr %7) #5
  call void @llvm.lifetime.start.p0(i64 4, ptr %8) #5
  call void @llvm.lifetime.start.p0(i64 4, ptr %9) #5
  %10 = load ptr, ptr %4, align 8, !tbaa !48
  %11 = getelementptr inbounds float, ptr %10, i64 0
  %12 = load float, ptr %11, align 4, !tbaa !50
  %13 = load ptr, ptr %5, align 8, !tbaa !48
  %14 = getelementptr inbounds float, ptr %13, i64 0
  %15 = load float, ptr %14, align 4, !tbaa !50
  %16 = fadd float %12, %15
  store float %16, ptr %7, align 4, !tbaa !50
  %17 = load ptr, ptr %4, align 8, !tbaa !48
  %18 = getelementptr inbounds float, ptr %17, i64 1
  %19 = load float, ptr %18, align 4, !tbaa !50
  %20 = load ptr, ptr %5, align 8, !tbaa !48
  %21 = getelementptr inbounds float, ptr %20, i64 1
  %22 = load float, ptr %21, align 4, !tbaa !50
  %23 = fadd float %19, %22
  store float %23, ptr %8, align 4, !tbaa !50
  %24 = load ptr, ptr %4, align 8, !tbaa !48
  %25 = getelementptr inbounds float, ptr %24, i64 2
  %26 = load float, ptr %25, align 4, !tbaa !50
  %27 = load ptr, ptr %5, align 8, !tbaa !48
  %28 = getelementptr inbounds float, ptr %27, i64 2
  %29 = load float, ptr %28, align 4, !tbaa !50
  %30 = fadd float %26, %29
  store float %30, ptr %9, align 4, !tbaa !50
  %31 = load float, ptr %7, align 4, !tbaa !50
  %32 = load ptr, ptr %6, align 8, !tbaa !48
  %33 = getelementptr inbounds float, ptr %32, i64 0
  store float %31, ptr %33, align 4, !tbaa !50
  %34 = load float, ptr %8, align 4, !tbaa !50
  %35 = load ptr, ptr %6, align 8, !tbaa !48
  %36 = getelementptr inbounds float, ptr %35, i64 1
  store float %34, ptr %36, align 4, !tbaa !50
  %37 = load float, ptr %9, align 4, !tbaa !50
  %38 = load ptr, ptr %6, align 8, !tbaa !48
  %39 = getelementptr inbounds float, ptr %38, i64 2
  store float %37, ptr %39, align 4, !tbaa !50
  call void @llvm.lifetime.end.p0(i64 4, ptr %9) #5
  call void @llvm.lifetime.end.p0(i64 4, ptr %8) #5
  call void @llvm.lifetime.end.p0(i64 4, ptr %7) #5
  ret void
}

; Function Attrs: mustprogress uwtable
define void @_Z8dump_pbcP8_IO_FILEP5t_pbc(ptr noundef %0, ptr noundef %1) #3 {
  %3 = alloca ptr, align 8
  %4 = alloca ptr, align 8
  %5 = alloca [3 x float], align 4
  store ptr %0, ptr %3, align 8, !tbaa !39
  store ptr %1, ptr %4, align 8, !tbaa !41
  call void @llvm.lifetime.start.p0(i64 12, ptr %5) #5
  %6 = load ptr, ptr %3, align 8, !tbaa !39
  %7 = load ptr, ptr %4, align 8, !tbaa !41
  %8 = getelementptr inbounds nuw %struct.t_pbc, ptr %7, i32 0, i32 2
  %9 = load i32, ptr %8, align 4, !tbaa !43
  %10 = call i32 (ptr, ptr, ...) @fprintf(ptr noundef %6, ptr noundef @.str.10, i32 noundef %9) #5
  %11 = load ptr, ptr %3, align 8, !tbaa !39
  %12 = load ptr, ptr %4, align 8, !tbaa !41
  %13 = getelementptr inbounds nuw %struct.t_pbc, ptr %12, i32 0, i32 4
  %14 = getelementptr inbounds [3 x [3 x float]], ptr %13, i64 0, i64 0
  call void @_Z8pr_rvecsP8_IO_FILEiPKcPA3_Kfi(ptr noundef %11, i32 noundef 0, ptr noundef @.str.11, ptr noundef %14, i32 noundef 3)
  %15 = load ptr, ptr %3, align 8, !tbaa !39
  %16 = load ptr, ptr %4, align 8, !tbaa !41
  %17 = getelementptr inbounds nuw %struct.t_pbc, ptr %16, i32 0, i32 5
  call void @_Z8pr_rvecsP8_IO_FILEiPKcPA3_Kfi(ptr noundef %15, i32 noundef 0, ptr noundef @.str.12, ptr noundef %17, i32 noundef 1)
  %18 = load ptr, ptr %3, align 8, !tbaa !39
  %19 = load ptr, ptr %4, align 8, !tbaa !41
  %20 = getelementptr inbounds nuw %struct.t_pbc, ptr %19, i32 0, i32 6
  call void @_Z8pr_rvecsP8_IO_FILEiPKcPA3_Kfi(ptr noundef %18, i32 noundef 0, ptr noundef @.str.13, ptr noundef %20, i32 noundef 1)
  %21 = load ptr, ptr %3, align 8, !tbaa !39
  %22 = load ptr, ptr %4, align 8, !tbaa !41
  %23 = getelementptr inbounds nuw %struct.t_pbc, ptr %22, i32 0, i32 7
  call void @_Z8pr_rvecsP8_IO_FILEiPKcPA3_Kfi(ptr noundef %21, i32 noundef 0, ptr noundef @.str.14, ptr noundef %23, i32 noundef 1)
  %24 = load ptr, ptr %4, align 8, !tbaa !41
  %25 = getelementptr inbounds nuw %struct.t_pbc, ptr %24, i32 0, i32 6
  %26 = getelementptr inbounds [3 x float], ptr %25, i64 0, i64 0
  %27 = load ptr, ptr %4, align 8, !tbaa !41
  %28 = getelementptr inbounds nuw %struct.t_pbc, ptr %27, i32 0, i32 7
  %29 = getelementptr inbounds [3 x float], ptr %28, i64 0, i64 0
  %30 = getelementptr inbounds [3 x float], ptr %5, i64 0, i64 0
  call void @_ZL8rvec_addPKfS0_Pf(ptr noundef %26, ptr noundef %29, ptr noundef %30)
  %31 = load ptr, ptr %3, align 8, !tbaa !39
  call void @_Z8pr_rvecsP8_IO_FILEiPKcPA3_Kfi(ptr noundef %31, i32 noundef 0, ptr noundef @.str.15, ptr noundef %5, i32 noundef 1)
  %32 = load ptr, ptr %3, align 8, !tbaa !39
  %33 = load ptr, ptr %4, align 8, !tbaa !41
  %34 = getelementptr inbounds nuw %struct.t_pbc, ptr %33, i32 0, i32 8
  %35 = load float, ptr %34, align 4, !tbaa !46
  %36 = fpext float %35 to double
  %37 = call i32 (ptr, ptr, ...) @fprintf(ptr noundef %32, ptr noundef @.str.16, double noundef %36) #5
  %38 = load ptr, ptr %3, align 8, !tbaa !39
  %39 = load ptr, ptr %4, align 8, !tbaa !41
  %40 = getelementptr inbounds nuw %struct.t_pbc, ptr %39, i32 0, i32 9
  %41 = load i32, ptr %40, align 4, !tbaa !47
  %42 = call i32 (ptr, ptr, ...) @fprintf(ptr noundef %38, ptr noundef @.str.17, i32 noundef %41) #5
  %43 = load ptr, ptr %4, align 8, !tbaa !41
  %44 = getelementptr inbounds nuw %struct.t_pbc, ptr %43, i32 0, i32 9
  %45 = load i32, ptr %44, align 4, !tbaa !47
  %46 = icmp sgt i32 %45, 0
  br i1 %46, label %47, label %62

47:                                               ; preds = %2
  %48 = load ptr, ptr %3, align 8, !tbaa !39
  %49 = load ptr, ptr %4, align 8, !tbaa !41
  %50 = getelementptr inbounds nuw %struct.t_pbc, ptr %49, i32 0, i32 10
  %51 = getelementptr inbounds [12 x [3 x i32]], ptr %50, i64 0, i64 0
  %52 = load ptr, ptr %4, align 8, !tbaa !41
  %53 = getelementptr inbounds nuw %struct.t_pbc, ptr %52, i32 0, i32 9
  %54 = load i32, ptr %53, align 4, !tbaa !47
  call void @_Z8pr_ivecsP8_IO_FILEiPKcPA3_Kiib(ptr noundef %48, i32 noundef 0, ptr noundef @.str.18, ptr noundef %51, i32 noundef %54, i1 noundef zeroext false)
  %55 = load ptr, ptr %3, align 8, !tbaa !39
  %56 = load ptr, ptr %4, align 8, !tbaa !41
  %57 = getelementptr inbounds nuw %struct.t_pbc, ptr %56, i32 0, i32 11
  %58 = getelementptr inbounds [12 x [3 x float]], ptr %57, i64 0, i64 0
  %59 = load ptr, ptr %4, align 8, !tbaa !41
  %60 = getelementptr inbounds nuw %struct.t_pbc, ptr %59, i32 0, i32 9
  %61 = load i32, ptr %60, align 4, !tbaa !47
  call void @_Z8pr_rvecsP8_IO_FILEiPKcPA3_Kfi(ptr noundef %55, i32 noundef 0, ptr noundef @.str.19, ptr noundef %58, i32 noundef %61)
  br label %62

62:                                               ; preds = %47, %2
  call void @llvm.lifetime.end.p0(i64 12, ptr %5) #5
  ret void
}