; Function Attrs: mustprogress uwtable
define void @_Z8dump_pbcP8_IO_FILEP5t_pbc(ptr noundef %0, ptr noundef %1) local_unnamed_addr #1 {
  %3 = alloca [3 x float], align 4
  call void @llvm.lifetime.start.p0(i64 12, ptr nonnull %3) #20
  %4 = getelementptr inbounds nuw i8, ptr %1, i64 8
  %5 = load i32, ptr %4, align 4, !tbaa !16
  %6 = tail call i32 (ptr, ptr, ...) @fprintf(ptr noundef %0, ptr noundef nonnull @.str.10, i32 noundef %5) #20
  %7 = getelementptr inbounds nuw i8, ptr %1, i64 16
  tail call void @_Z8pr_rvecsP8_IO_FILEiPKcPA3_Kfi(ptr noundef %0, i32 noundef 0, ptr noundef nonnull @.str.11, ptr noundef nonnull %7, i32 noundef 3)
  %8 = getelementptr inbounds nuw i8, ptr %1, i64 52
  tail call void @_Z8pr_rvecsP8_IO_FILEiPKcPA3_Kfi(ptr noundef %0, i32 noundef 0, ptr noundef nonnull @.str.12, ptr noundef nonnull %8, i32 noundef 1)
  %9 = getelementptr inbounds nuw i8, ptr %1, i64 64
  tail call void @_Z8pr_rvecsP8_IO_FILEiPKcPA3_Kfi(ptr noundef %0, i32 noundef 0, ptr noundef nonnull @.str.13, ptr noundef nonnull %9, i32 noundef 1)
  %10 = getelementptr inbounds nuw i8, ptr %1, i64 76
  tail call void @_Z8pr_rvecsP8_IO_FILEiPKcPA3_Kfi(ptr noundef %0, i32 noundef 0, ptr noundef nonnull @.str.14, ptr noundef nonnull %10, i32 noundef 1)
  %11 = load float, ptr %9, align 4, !tbaa !21
  %12 = load float, ptr %10, align 4, !tbaa !21
  %13 = fadd float %11, %12
  %14 = getelementptr inbounds nuw i8, ptr %1, i64 68
  %15 = load float, ptr %14, align 4, !tbaa !21
  %16 = getelementptr inbounds nuw i8, ptr %1, i64 80
  %17 = load float, ptr %16, align 4, !tbaa !21
  %18 = fadd float %15, %17
  %19 = getelementptr inbounds nuw i8, ptr %1, i64 72
  %20 = load float, ptr %19, align 4, !tbaa !21
  %21 = getelementptr inbounds nuw i8, ptr %1, i64 84
  %22 = load float, ptr %21, align 4, !tbaa !21
  %23 = fadd float %20, %22
  store float %13, ptr %3, align 4, !tbaa !21
  %24 = getelementptr inbounds nuw i8, ptr %3, i64 4
  store float %18, ptr %24, align 4, !tbaa !21
  %25 = getelementptr inbounds nuw i8, ptr %3, i64 8
  store float %23, ptr %25, align 4, !tbaa !21
  call void @_Z8pr_rvecsP8_IO_FILEiPKcPA3_Kfi(ptr noundef %0, i32 noundef 0, ptr noundef nonnull @.str.15, ptr noundef nonnull %3, i32 noundef 1)
  %26 = getelementptr inbounds nuw i8, ptr %1, i64 88
  %27 = load float, ptr %26, align 4, !tbaa !22
  %28 = fpext float %27 to double
  %29 = call i32 (ptr, ptr, ...) @fprintf(ptr noundef %0, ptr noundef nonnull @.str.16, double noundef %28) #20
  %30 = getelementptr inbounds nuw i8, ptr %1, i64 92
  %31 = load i32, ptr %30, align 4, !tbaa !23
  %32 = call i32 (ptr, ptr, ...) @fprintf(ptr noundef %0, ptr noundef nonnull @.str.17, i32 noundef %31) #20
  %33 = load i32, ptr %30, align 4, !tbaa !23
  %34 = icmp sgt i32 %33, 0
  br i1 %34, label %35, label %39

35:                                               ; preds = %2
  %36 = getelementptr inbounds nuw i8, ptr %1, i64 96
  call void @_Z8pr_ivecsP8_IO_FILEiPKcPA3_Kiib(ptr noundef %0, i32 noundef 0, ptr noundef nonnull @.str.18, ptr noundef nonnull %36, i32 noundef %33, i1 noundef zeroext false)
  %37 = getelementptr inbounds nuw i8, ptr %1, i64 240
  %38 = load i32, ptr %30, align 4, !tbaa !23
  call void @_Z8pr_rvecsP8_IO_FILEiPKcPA3_Kfi(ptr noundef %0, i32 noundef 0, ptr noundef nonnull @.str.19, ptr noundef nonnull %37, i32 noundef %38)
  br label %39

39:                                               ; preds = %35, %2
  call void @llvm.lifetime.end.p0(i64 12, ptr nonnull %3) #20
  ret void
}